; ModuleID = '51/1071.c'
source_filename = "51/1071.c"
target datalayout = "e-m:e-p270:32:32-p271:32:32-p272:64:64-i64:64-f80:128-n8:16:32:64-S128"
target triple = "x86_64-pc-linux-gnu"

@.str = private unnamed_addr constant [5 x i8] c"%d%s\00", align 1
@.str.1 = private unnamed_addr constant [3 x i8] c"NO\00", align 1
@.str.2 = private unnamed_addr constant [4 x i8] c"%d\0A\00", align 1
@.str.3 = private unnamed_addr constant [4 x i8] c"%s\0A\00", align 1

; Function Attrs: noinline nounwind uwtable
define dso_local i32 @main() #0 {
  %1 = alloca i32, align 4
  %2 = alloca i32, align 4
  %3 = alloca i32, align 4
  %4 = alloca i32, align 4
  %5 = alloca i32, align 4
  %6 = alloca i32, align 4
  %7 = alloca i32, align 4
  %8 = alloca [510 x i32], align 16
  %9 = alloca i32, align 4
  %10 = alloca i32, align 4
  %11 = alloca [510 x i8], align 16
  %12 = alloca [510 x [6 x i8]], align 16
  store i32 0, i32* %1, align 4
  %13 = bitcast [510 x i32]* %8 to i8*
  call void @llvm.memset.p0i8.i64(i8* align 16 %13, i8 0, i64 2040, i1 false)
  store i32 0, i32* %10, align 4
  %14 = getelementptr inbounds [510 x i8], [510 x i8]* %11, i64 0, i64 0
  %15 = call i32 (i8*, ...) @__isoc99_scanf(i8* getelementptr inbounds ([5 x i8], [5 x i8]* @.str, i64 0, i64 0), i32* %2, i8* %14)
  %16 = getelementptr inbounds [510 x i8], [510 x i8]* %11, i64 0, i64 0
  %17 = call i64 @strlen(i8* %16) #4
  %18 = trunc i64 %17 to i32
  store i32 %18, i32* %3, align 4
  store i32 0, i32* %4, align 4
  br label %19

19:                                               ; preds = %79, %0
  %20 = load i32, i32* %4, align 4
  %21 = load i32, i32* %3, align 4
  %22 = load i32, i32* %2, align 4
  %23 = sub nsw i32 %21, %22
  %24 = icmp sle i32 %20, %23
  br i1 %24, label %25, label %82

25:                                               ; preds = %19
  store i32 0, i32* %5, align 4
  br label %26

26:                                               ; preds = %43, %25
  %27 = load i32, i32* %5, align 4
  %28 = load i32, i32* %2, align 4
  %29 = icmp slt i32 %27, %28
  br i1 %29, label %30, label %46

30:                                               ; preds = %26
  %31 = load i32, i32* %4, align 4
  %32 = load i32, i32* %5, align 4
  %33 = add nsw i32 %31, %32
  %34 = sext i32 %33 to i64
  %35 = getelementptr inbounds [510 x i8], [510 x i8]* %11, i64 0, i64 %34
  %36 = load i8, i8* %35, align 1
  %37 = load i32, i32* %4, align 4
  %38 = sext i32 %37 to i64
  %39 = getelementptr inbounds [510 x [6 x i8]], [510 x [6 x i8]]* %12, i64 0, i64 %38
  %40 = load i32, i32* %5, align 4
  %41 = sext i32 %40 to i64
  %42 = getelementptr inbounds [6 x i8], [6 x i8]* %39, i64 0, i64 %41
  store i8 %36, i8* %42, align 1
  br label %43

43:                                               ; preds = %30
  %44 = load i32, i32* %5, align 4
  %45 = add nsw i32 %44, 1
  store i32 %45, i32* %5, align 4
  br label %26

46:                                               ; preds = %26
  store i32 0, i32* %7, align 4
  br label %47

47:                                               ; preds = %75, %46
  %48 = load i32, i32* %7, align 4
  %49 = load i32, i32* %3, align 4
  %50 = load i32, i32* %2, align 4
  %51 = sub nsw i32 %49, %50
  %52 = icmp sle i32 %48, %51
  br i1 %52, label %53, label %78

53:                                               ; preds = %47
  %54 = load i32, i32* %4, align 4
  %55 = sext i32 %54 to i64
  %56 = getelementptr inbounds [510 x [6 x i8]], [510 x [6 x i8]]* %12, i64 0, i64 %55
  %57 = getelementptr inbounds [6 x i8], [6 x i8]* %56, i64 0, i64 0
  %58 = load i32, i32* %7, align 4
  %59 = sext i32 %58 to i64
  %60 = getelementptr inbounds [510 x [6 x i8]], [510 x [6 x i8]]* %12, i64 0, i64 %59
  %61 = getelementptr inbounds [6 x i8], [6 x i8]* %60, i64 0, i64 0
  %62 = call i32 @strcmp(i8* %57, i8* %61) #4
  store i32 %62, i32* %6, align 4
  %63 = load i32, i32* %6, align 4
  %64 = icmp eq i32 %63, 0
  br i1 %64, label %65, label %74

65:                                               ; preds = %53
  %66 = load i32, i32* %7, align 4
  %67 = sext i32 %66 to i64
  %68 = getelementptr inbounds [510 x i32], [510 x i32]* %8, i64 0, i64 %67
  %69 = load i32, i32* %68, align 4
  %70 = add nsw i32 %69, 1
  %71 = load i32, i32* %7, align 4
  %72 = sext i32 %71 to i64
  %73 = getelementptr inbounds [510 x i32], [510 x i32]* %8, i64 0, i64 %72
  store i32 %70, i32* %73, align 4
  br label %78

74:                                               ; preds = %53
  br label %75

75:                                               ; preds = %74
  %76 = load i32, i32* %7, align 4
  %77 = add nsw i32 %76, 1
  store i32 %77, i32* %7, align 4
  br label %47

78:                                               ; preds = %65, %47
  br label %79

79:                                               ; preds = %78
  %80 = load i32, i32* %4, align 4
  %81 = add nsw i32 %80, 1
  store i32 %81, i32* %4, align 4
  br label %19

82:                                               ; preds = %19
  %83 = getelementptr inbounds [510 x i32], [510 x i32]* %8, i64 0, i64 0
  %84 = load i32, i32* %83, align 16
  store i32 %84, i32* %9, align 4
  store i32 0, i32* %4, align 4
  br label %85

85:                                               ; preds = %104, %82
  %86 = load i32, i32* %4, align 4
  %87 = load i32, i32* %3, align 4
  %88 = load i32, i32* %2, align 4
  %89 = sub nsw i32 %87, %88
  %90 = icmp sle i32 %86, %89
  br i1 %90, label %91, label %107

91:                                               ; preds = %85
  %92 = load i32, i32* %4, align 4
  %93 = sext i32 %92 to i64
  %94 = getelementptr inbounds [510 x i32], [510 x i32]* %8, i64 0, i64 %93
  %95 = load i32, i32* %94, align 4
  %96 = load i32, i32* %9, align 4
  %97 = icmp sgt i32 %95, %96
  br i1 %97, label %98, label %103

98:                                               ; preds = %91
  %99 = load i32, i32* %4, align 4
  %100 = sext i32 %99 to i64
  %101 = getelementptr inbounds [510 x i32], [510 x i32]* %8, i64 0, i64 %100
  %102 = load i32, i32* %101, align 4
  store i32 %102, i32* %9, align 4
  br label %103

103:                                              ; preds = %98, %91
  br label %104

104:                                              ; preds = %103
  %105 = load i32, i32* %4, align 4
  %106 = add nsw i32 %105, 1
  store i32 %106, i32* %4, align 4
  br label %85

107:                                              ; preds = %85
  %108 = load i32, i32* %9, align 4
  %109 = icmp eq i32 %108, 1
  br i1 %109, label %110, label %112

110:                                              ; preds = %107
  %111 = call i32 (i8*, ...) @printf(i8* getelementptr inbounds ([3 x i8], [3 x i8]* @.str.1, i64 0, i64 0))
  br label %139

112:                                              ; preds = %107
  %113 = load i32, i32* %9, align 4
  %114 = call i32 (i8*, ...) @printf(i8* getelementptr inbounds ([4 x i8], [4 x i8]* @.str.2, i64 0, i64 0), i32 %113)
  store i32 0, i32* %4, align 4
  br label %115

115:                                              ; preds = %135, %112
  %116 = load i32, i32* %4, align 4
  %117 = load i32, i32* %3, align 4
  %118 = load i32, i32* %2, align 4
  %119 = sub nsw i32 %117, %118
  %120 = icmp sle i32 %116, %119
  br i1 %120, label %121, label %138

121:                                              ; preds = %115
  %122 = load i32, i32* %4, align 4
  %123 = sext i32 %122 to i64
  %124 = getelementptr inbounds [510 x i32], [510 x i32]* %8, i64 0, i64 %123
  %125 = load i32, i32* %124, align 4
  %126 = load i32, i32* %9, align 4
  %127 = icmp eq i32 %125, %126
  br i1 %127, label %128, label %134

128:                                              ; preds = %121
  %129 = load i32, i32* %4, align 4
  %130 = sext i32 %129 to i64
  %131 = getelementptr inbounds [510 x [6 x i8]], [510 x [6 x i8]]* %12, i64 0, i64 %130
  %132 = getelementptr inbounds [6 x i8], [6 x i8]* %131, i64 0, i64 0
  %133 = call i32 (i8*, ...) @printf(i8* getelementptr inbounds ([4 x i8], [4 x i8]* @.str.3, i64 0, i64 0), i8* %132)
  br label %134

134:                                              ; preds = %128, %121
  br label %135

135:                                              ; preds = %134
  %136 = load i32, i32* %4, align 4
  %137 = add nsw i32 %136, 1
  store i32 %137, i32* %4, align 4
  br label %115

138:                                              ; preds = %115
  br label %139

139:                                              ; preds = %138, %110
  ret i32 0
}

; Function Attrs: argmemonly nounwind willreturn
declare void @llvm.memset.p0i8.i64(i8* nocapture writeonly, i8, i64, i1 immarg) #1

declare dso_local i32 @__isoc99_scanf(i8*, ...) #2

; Function Attrs: nounwind readonly
declare dso_local i64 @strlen(i8*) #3

; Function Attrs: nounwind readonly
declare dso_local i32 @strcmp(i8*, i8*) #3

declare dso_local i32 @printf(i8*, ...) #2


!llvm.module.flags = !{!0}
!llvm.ident = !{!1}

!0 = !{i32 1, !"wchar_size", i32 4}
!1 = !{!"clang version 10.0.0-4ubuntu1 "}
